; Function Attrs: nounwind uwtable
define ptr @l___private_Lean_Elab_SyntheticMVars_0__Lean_Elab_Term_synthesizeUsingDefaultPrio_synthesizeUsingDefaultInstance___lambda__1(ptr noundef readonly captures(none) %0, ptr noundef readonly captures(none) %1, ptr readnone captures(none) %2, ptr noundef %3, ptr noundef %4, ptr noundef %5, ptr noundef %6, ptr noundef %7, ptr noundef %8, ptr noundef %9) local_unnamed_addr #0 {
  %11 = getelementptr i8, ptr %0, i64 8
  %.val = load i64, ptr %11, align 8, !tbaa !13
  tail call void @lean_inc_heartbeat() #7
  %12 = tail call noalias ptr @mi_malloc_small(i64 noundef 32) #7
  %13 = icmp eq ptr %12, null
  br i1 %13, label %14, label %lean_alloc_ctor.exit

14:                                               ; preds = %10
  tail call void @lean_internal_panic_out_of_memory() #8
  unreachable

lean_alloc_ctor.exit:                             ; preds = %10
  %15 = shl i64 %.val, 1
  %16 = or disjoint i64 %15, 1
  %17 = inttoptr i64 %16 to ptr
  %18 = getelementptr inbounds nuw i8, ptr %12, i64 4
  store i32 1, ptr %12, align 4, !tbaa !7
  store i32 196640, ptr %18, align 4
  %19 = getelementptr inbounds nuw i8, ptr %12, i64 8
  store ptr inttoptr (i64 1 to ptr), ptr %19, align 8, !tbaa !10
  %20 = getelementptr inbounds nuw i8, ptr %12, i64 16
  store ptr %17, ptr %20, align 8, !tbaa !10
  %21 = getelementptr inbounds nuw i8, ptr %12, i64 24
  store ptr inttoptr (i64 3 to ptr), ptr %21, align 8, !tbaa !10
  %22 = tail call ptr @l_Std_Range_forIn_x27_loop___at___private_Lean_Elab_SyntheticMVars_0__Lean_Elab_Term_synthesizeUsingDefaultPrio_synthesizeUsingDefaultInstance___spec__1(ptr noundef %1, ptr noundef nonnull %0, ptr noundef nonnull %12, ptr noundef nonnull inttoptr (i64 1 to ptr), ptr noundef nonnull inttoptr (i64 1 to ptr), ptr nonnull poison, ptr nonnull poison, ptr poison, ptr poison, ptr poison, ptr poison, ptr poison, ptr poison, ptr noundef %9)
  %23 = ptrtoint ptr %12 to i64
  %24 = and i64 %23, 1
  %.not = icmp eq i64 %24, 0
  br i1 %.not, label %25, label %lean_dec.exit35

25:                                               ; preds = %lean_alloc_ctor.exit
  %26 = load i32, ptr %12, align 4, !tbaa !7
  %27 = icmp sgt i32 %26, 1
  br i1 %27, label %28, label %30, !prof !12

28:                                               ; preds = %25
  %29 = add nsw i32 %26, -1
  store i32 %29, ptr %12, align 4, !tbaa !7
  br label %lean_dec.exit35

30:                                               ; preds = %25
  %.not.i = icmp eq i32 %26, 0
  br i1 %.not.i, label %lean_dec.exit35, label %31

31:                                               ; preds = %30
  tail call void @lean_dec_ref_cold(ptr noundef nonnull %12) #7
  br label %lean_dec.exit35

lean_dec.exit35:                                  ; preds = %31, %30, %28, %lean_alloc_ctor.exit
  %32 = getelementptr inbounds nuw i8, ptr %22, i64 8
  %33 = load ptr, ptr %32, align 8, !tbaa !10
  %34 = ptrtoint ptr %33 to i64
  %35 = and i64 %34, 1
  %.not42 = icmp eq i64 %35, 0
  br i1 %.not42, label %36, label %lean_inc.exit34

36:                                               ; preds = %lean_dec.exit35
  %.val.i = load i32, ptr %33, align 4, !tbaa !7
  %37 = icmp sgt i32 %.val.i, 0
  br i1 %37, label %38, label %40, !prof !12

38:                                               ; preds = %36
  %39 = add nuw i32 %.val.i, 1
  store i32 %39, ptr %33, align 4, !tbaa !7
  br label %lean_inc.exit34

40:                                               ; preds = %36
  %.not.i38 = icmp eq i32 %.val.i, 0
  br i1 %.not.i38, label %lean_inc.exit34, label %41

41:                                               ; preds = %40
  tail call void @lean_inc_ref_cold(ptr noundef nonnull %33) #7
  br label %lean_inc.exit34

lean_inc.exit34:                                  ; preds = %41, %40, %38, %lean_dec.exit35
  %42 = getelementptr inbounds nuw i8, ptr %22, i64 16
  %43 = load ptr, ptr %42, align 8, !tbaa !10
  %44 = ptrtoint ptr %43 to i64
  %45 = and i64 %44, 1
  %.not43 = icmp eq i64 %45, 0
  br i1 %.not43, label %46, label %lean_inc.exit

46:                                               ; preds = %lean_inc.exit34
  %.val.i39 = load i32, ptr %43, align 4, !tbaa !7
  %47 = icmp sgt i32 %.val.i39, 0
  br i1 %47, label %48, label %50, !prof !12

48:                                               ; preds = %46
  %49 = add nuw i32 %.val.i39, 1
  store i32 %49, ptr %43, align 4, !tbaa !7
  br label %lean_inc.exit

50:                                               ; preds = %46
  %.not.i40 = icmp eq i32 %.val.i39, 0
  br i1 %.not.i40, label %lean_inc.exit, label %51

51:                                               ; preds = %50
  tail call void @lean_inc_ref_cold(ptr noundef nonnull %43) #7
  br label %lean_inc.exit

lean_inc.exit:                                    ; preds = %51, %50, %48, %lean_inc.exit34
  %52 = ptrtoint ptr %22 to i64
  %53 = and i64 %52, 1
  %.not44 = icmp eq i64 %53, 0
  br i1 %.not44, label %54, label %lean_dec.exit

54:                                               ; preds = %lean_inc.exit
  %55 = load i32, ptr %22, align 4, !tbaa !7
  %56 = icmp sgt i32 %55, 1
  br i1 %56, label %57, label %59, !prof !12

57:                                               ; preds = %54
  %58 = add nsw i32 %55, -1
  store i32 %58, ptr %22, align 4, !tbaa !7
  br label %lean_dec.exit

59:                                               ; preds = %54
  %.not.i36 = icmp eq i32 %55, 0
  br i1 %.not.i36, label %lean_dec.exit, label %60

60:                                               ; preds = %59
  tail call void @lean_dec_ref_cold(ptr noundef nonnull %22) #7
  br label %lean_dec.exit

lean_dec.exit:                                    ; preds = %60, %59, %57, %lean_inc.exit
  %61 = tail call ptr @l___private_Lean_Elab_SyntheticMVars_0__Lean_Elab_Term_synthesizeUsingDefaultPrio_synthesizePending(ptr noundef %33, ptr noundef %3, ptr noundef %4, ptr noundef %5, ptr noundef %6, ptr noundef %7, ptr noundef %8, ptr noundef %43)
  ret ptr %61
}